; Function Attrs: cold nounwind optsize uwtable
define internal void @uninit(ptr noundef readonly captures(none) %0) #0 {
  %2 = getelementptr inbounds nuw i8, ptr %0, i64 72
  %3 = load ptr, ptr %2, align 8, !tbaa !4
  %4 = getelementptr inbounds nuw i8, ptr %3, i64 88
  %5 = load ptr, ptr %4, align 8, !tbaa !32
  tail call void @av_expr_free(ptr noundef %5) #6
  %6 = getelementptr inbounds nuw i8, ptr %3, i64 32
  %7 = load ptr, ptr %6, align 8, !tbaa !33
  tail call void @av_expr_free(ptr noundef %7) #6
  %8 = getelementptr inbounds nuw i8, ptr %3, i64 40
  %9 = load ptr, ptr %8, align 8, !tbaa !34
  tail call void @av_expr_free(ptr noundef %9) #6
  %10 = getelementptr inbounds nuw i8, ptr %3, i64 64
  %11 = load ptr, ptr %10, align 8, !tbaa !35
  tail call void @av_expr_free(ptr noundef %11) #6
  ret void
}